target datalayout = "e-m:e-p270:32:32-p271:32:32-p272:64:64-i64:64-i128:128-f80:128-n8:16:32:64-S128"
target triple = "x86_64-pc-linux-gnu"

%struct.anon = type { ptr, i32 }

; Function Attrs: mustprogress uwtable
define internal noundef i32 @_ZL20errno_from_err_constPKc(ptr noundef %0) #1 {
  %2 = alloca i32, align 4
  %3 = alloca ptr, align 8
  %4 = alloca i64, align 8
  %5 = alloca i64, align 8
  %6 = alloca i64, align 8
  %7 = alloca i32, align 4
  %8 = alloca [100 x i8], align 16
  store ptr %0, ptr %3, align 8
  store i64 16, ptr %4, align 8
  call void @llvm.memset.p0.i64(ptr align 16 %8, i8 0, i64 100, i1 false)
  store i64 0, ptr %5, align 8
  br label %9

9:                                                ; preds = %38, %1
  %10 = load i64, ptr %5, align 8
  %11 = icmp ult i64 %10, 99
  br i1 %11, label %12, label %41

12:                                               ; preds = %9
  %13 = load ptr, ptr %3, align 8
  %14 = load i64, ptr %5, align 8
  %15 = getelementptr inbounds i8, ptr %13, i64 %14
  %16 = load i8, ptr %15, align 1
  %17 = sext i8 %16 to i32
  %18 = icmp eq i32 0, %17
  br i1 %18, label %27, label %19

19:                                               ; preds = %12
  %20 = load ptr, ptr %3, align 8
  %21 = load i64, ptr %5, align 8
  %22 = getelementptr inbounds i8, ptr %20, i64 %21
  %23 = load i8, ptr %22, align 1
  %24 = sext i8 %23 to i32
  %25 = call i32 @isspace(i32 noundef %24) #14
  %26 = icmp ne i32 %25, 0
  br i1 %26, label %27, label %28

27:                                               ; preds = %19, %12
  br label %41

28:                                               ; preds = %19
  %29 = load ptr, ptr %3, align 8
  %30 = load i64, ptr %5, align 8
  %31 = getelementptr inbounds i8, ptr %29, i64 %30
  %32 = load i8, ptr %31, align 1
  %33 = sext i8 %32 to i32
  %34 = call i32 @tolower(i32 noundef %33) #14
  %35 = trunc i32 %34 to i8
  %36 = load i64, ptr %5, align 8
  %37 = getelementptr inbounds [100 x i8], ptr %8, i64 0, i64 %36
  store i8 %35, ptr %37, align 1
  br label %38

38:                                               ; preds = %28
  %39 = load i64, ptr %5, align 8
  %40 = add i64 %39, 1
  store i64 %40, ptr %5, align 8
  br label %9, !llvm.loop !34

41:                                               ; preds = %27, %9
  %42 = load i64, ptr %5, align 8
  %43 = getelementptr inbounds [100 x i8], ptr %8, i64 0, i64 %42
  store i8 0, ptr %43, align 1
  %44 = load ptr, ptr %3, align 8
  %45 = call noundef double @_Z7pj_atofPKc(ptr noundef %44)
  %46 = fptosi double %45 to i32
  store i32 %46, ptr %7, align 4
  %47 = load i32, ptr %7, align 4
  %48 = icmp ne i32 0, %47
  br i1 %48, label %49, label %51

49:                                               ; preds = %41
  %50 = load i32, ptr %7, align 4
  store i32 %50, ptr %2, align 4
  br label %76

51:                                               ; preds = %41
  %52 = getelementptr inbounds [100 x i8], ptr %8, i64 0, i64 0
  %53 = call i64 @strlen(ptr noundef %52) #14
  store i64 %53, ptr %6, align 8
  store i64 0, ptr %5, align 8
  br label %54

54:                                               ; preds = %72, %51
  %55 = load i64, ptr %5, align 8
  %56 = icmp ult i64 %55, 16
  br i1 %56, label %57, label %75

57:                                               ; preds = %54
  %58 = load i64, ptr %5, align 8
  %59 = getelementptr inbounds [16 x %struct.anon], ptr @_ZN12_GLOBAL__N_16lookupE, i64 0, i64 %58
  %60 = getelementptr inbounds %struct.anon, ptr %59, i32 0, i32 0
  %61 = load ptr, ptr %60, align 16
  %62 = load ptr, ptr %3, align 8
  %63 = load i64, ptr %6, align 8
  %64 = call i32 @strncmp(ptr noundef %61, ptr noundef %62, i64 noundef %63) #14
  %65 = icmp eq i32 0, %64
  br i1 %65, label %66, label %71

66:                                               ; preds = %57
  %67 = load i64, ptr %5, align 8
  %68 = getelementptr inbounds [16 x %struct.anon], ptr @_ZN12_GLOBAL__N_16lookupE, i64 0, i64 %67
  %69 = getelementptr inbounds %struct.anon, ptr %68, i32 0, i32 1
  %70 = load i32, ptr %69, align 8
  store i32 %70, ptr %2, align 4
  br label %76

71:                                               ; preds = %57
  br label %72

72:                                               ; preds = %71
  %73 = load i64, ptr %5, align 8
  %74 = add i64 %73, 1
  store i64 %74, ptr %5, align 8
  br label %54, !llvm.loop !35

75:                                               ; preds = %54
  store i32 9999, ptr %2, align 4
  br label %76

76:                                               ; preds = %75, %66, %49
  %77 = load i32, ptr %2, align 4
  ret i32 %77
}