; Function Attrs: mustprogress norecurse uwtable
define internal fastcc noundef i32 @_ZL20errno_from_err_constPKc(ptr noundef %0) unnamed_addr #10 {
  %2 = alloca [100 x i8], align 16
  call void @llvm.memset.p0.i64(ptr noundef nonnull align 16 dereferenceable(100) %2, i8 0, i64 100, i1 false)
  br label %3

3:                                                ; preds = %1, %10
  %.01923 = phi i64 [ 0, %1 ], [ %14, %10 ]
  %4 = getelementptr inbounds i8, ptr %0, i64 %.01923
  %5 = load i8, ptr %4, align 1
  %6 = sext i8 %5 to i32
  %7 = icmp eq i8 %5, 0
  br i1 %7, label %15, label %8

8:                                                ; preds = %3
  %9 = tail call i32 @isspace(i32 noundef %6) #27
  %.not = icmp eq i32 %9, 0
  br i1 %.not, label %10, label %15

10:                                               ; preds = %8
  %11 = tail call i32 @tolower(i32 noundef %6) #27
  %12 = trunc i32 %11 to i8
  %13 = getelementptr inbounds [100 x i8], ptr %2, i64 0, i64 %.01923
  store i8 %12, ptr %13, align 1
  %14 = add nuw nsw i64 %.01923, 1
  %exitcond.not = icmp eq i64 %14, 99
  br i1 %exitcond.not, label %15, label %3, !llvm.loop !55

15:                                               ; preds = %3, %8, %10
  %.019.lcssa = phi i64 [ %.01923, %3 ], [ %.01923, %8 ], [ 99, %10 ]
  %16 = getelementptr inbounds [100 x i8], ptr %2, i64 0, i64 %.019.lcssa
  store i8 0, ptr %16, align 1
  %17 = tail call noundef double @_Z7pj_atofPKc(ptr noundef nonnull %0)
  %18 = fptosi double %17 to i32
  %.not22 = icmp eq i32 %18, 0
  br i1 %.not22, label %19, label %.loopexit

19:                                               ; preds = %15
  %20 = call i64 @strlen(ptr noundef nonnull dereferenceable(1) %2) #27
  br label %23

21:                                               ; preds = %23
  %22 = add nuw nsw i64 %.124, 1
  %exitcond26.not = icmp eq i64 %22, 16
  br i1 %exitcond26.not, label %.loopexit, label %23, !llvm.loop !56

23:                                               ; preds = %19, %21
  %.124 = phi i64 [ 0, %19 ], [ %22, %21 ]
  %24 = getelementptr inbounds [16 x %struct.anon], ptr @_ZN12_GLOBAL__N_16lookupE, i64 0, i64 %.124
  %25 = load ptr, ptr %24, align 16
  %26 = tail call i32 @strncmp(ptr noundef %25, ptr noundef %0, i64 noundef %20) #27
  %27 = icmp eq i32 %26, 0
  br i1 %27, label %28, label %21

28:                                               ; preds = %23
  %29 = getelementptr inbounds i8, ptr %24, i64 8
  %30 = load i32, ptr %29, align 8
  br label %.loopexit

.loopexit:                                        ; preds = %21, %15, %28
  %.0 = phi i32 [ %30, %28 ], [ %18, %15 ], [ 9999, %21 ]
  ret i32 %.0
}